target datalayout = "e-m:e-p270:32:32-p271:32:32-p272:64:64-i64:64-i128:128-f80:128-n8:16:32:64-S128"
target triple = "x86_64-pc-linux-gnu"

%struct.FunctionCallInfoBaseData = type { ptr, ptr, ptr, i32, i8, i16, [0 x %struct.NullableDatum] }
%struct.NullableDatum = type { i64, i8 }
%union.anon.1 = type { double }

; Function Attrs: inlinehint nounwind uwtable
define internal i64 @Int64GetDatum(i64 noundef %0) #3 {
  %2 = alloca i64, align 8
  store i64 %0, ptr %2, align 8
  %3 = load i64, ptr %2, align 8
  ret i64 %3
}

; Function Attrs: inlinehint nounwind uwtable
define internal i64 @DatumGetInt64(i64 noundef %0) #3 {
  %2 = alloca i64, align 8
  store i64 %0, ptr %2, align 8
  %3 = load i64, ptr %2, align 8
  ret i64 %3
}

; Function Attrs: inlinehint nounwind uwtable
define internal i64 @Float8GetDatum(double noundef %0) #3 {
  %2 = alloca double, align 8
  %3 = alloca %union.anon.1, align 8
  store double %0, ptr %2, align 8
  call void @llvm.lifetime.start.p0(i64 8, ptr %3) #8
  %4 = load double, ptr %2, align 8
  store double %4, ptr %3, align 8
  %5 = load i64, ptr %3, align 8
  %6 = call i64 @Int64GetDatum(i64 noundef %5)
  call void @llvm.lifetime.end.p0(i64 8, ptr %3) #8
  ret i64 %6
}

; Function Attrs: inlinehint nounwind uwtable
define internal i64 @DatumGetLSN(i64 noundef %0) #3 {
  %2 = alloca i64, align 8
  store i64 %0, ptr %2, align 8
  %3 = load i64, ptr %2, align 8
  %4 = call i64 @DatumGetInt64(i64 noundef %3)
  ret i64 %4
}

; Function Attrs: nounwind uwtable
define dso_local i64 @brin_minmax_multi_distance_pg_lsn(ptr noundef %0) #0 {
  %2 = alloca ptr, align 8
  %3 = alloca double, align 8
  %4 = alloca i64, align 8
  %5 = alloca i64, align 8
  store ptr %0, ptr %2, align 8
  call void @llvm.lifetime.start.p0(i64 8, ptr %3) #8
  store double 0.000000e+00, ptr %3, align 8
  call void @llvm.lifetime.start.p0(i64 8, ptr %4) #8
  %6 = load ptr, ptr %2, align 8
  %7 = getelementptr inbounds nuw %struct.FunctionCallInfoBaseData, ptr %6, i32 0, i32 6
  %8 = getelementptr inbounds [0 x %struct.NullableDatum], ptr %7, i64 0, i64 0
  %9 = getelementptr inbounds nuw %struct.NullableDatum, ptr %8, i32 0, i32 0
  %10 = load i64, ptr %9, align 8
  %11 = call i64 @DatumGetLSN(i64 noundef %10)
  store i64 %11, ptr %4, align 8
  call void @llvm.lifetime.start.p0(i64 8, ptr %5) #8
  %12 = load ptr, ptr %2, align 8
  %13 = getelementptr inbounds nuw %struct.FunctionCallInfoBaseData, ptr %12, i32 0, i32 6
  %14 = getelementptr inbounds [0 x %struct.NullableDatum], ptr %13, i64 0, i64 1
  %15 = getelementptr inbounds nuw %struct.NullableDatum, ptr %14, i32 0, i32 0
  %16 = load i64, ptr %15, align 8
  %17 = call i64 @DatumGetLSN(i64 noundef %16)
  store i64 %17, ptr %5, align 8
  %18 = load i64, ptr %5, align 8
  %19 = load i64, ptr %4, align 8
  %20 = sub i64 %18, %19
  %21 = uitofp i64 %20 to double
  store double %21, ptr %3, align 8
  %22 = load double, ptr %3, align 8
  %23 = call i64 @Float8GetDatum(double noundef %22)
  call void @llvm.lifetime.end.p0(i64 8, ptr %5) #8
  call void @llvm.lifetime.end.p0(i64 8, ptr %4) #8
  call void @llvm.lifetime.end.p0(i64 8, ptr %3) #8
  ret i64 %23
}